target datalayout = "e-m:e-p270:32:32-p271:32:32-p272:64:64-i64:64-i128:128-f80:128-n8:16:32:64-S128"
target triple = "x86_64-pc-linux-gnu"

%class.history_t = type { float, %"class.std::vector", float, %"class.std::vector" }
%"class.std::vector" = type { %"struct.std::_Vector_base" }
%"struct.std::_Vector_base" = type { %"struct.std::_Vector_base<float, std::allocator<float>>::_Vector_impl" }
%"struct.std::_Vector_base<float, std::allocator<float>>::_Vector_impl" = type { %"struct.std::_Vector_base<float, std::allocator<float>>::_Vector_impl_data" }
%"struct.std::_Vector_base<float, std::allocator<float>>::_Vector_impl_data" = type { ptr, ptr, ptr }
%class.ekinstate_t = type <{ i8, [3 x i8], i32, ptr, ptr, ptr, [3 x [3 x float]], [4 x i8], %"class.std::vector.0", %"class.std::vector.0", %"class.std::vector.0", float, float, i8, [7 x i8] }>
%"class.std::vector.0" = type { %"struct.std::_Vector_base.1" }
%"struct.std::_Vector_base.1" = type { %"struct.std::_Vector_base<double, std::allocator<double>>::_Vector_impl" }
%"struct.std::_Vector_base<double, std::allocator<double>>::_Vector_impl" = type { %"struct.std::_Vector_base<double, std::allocator<double>>::_Vector_impl_data" }
%"struct.std::_Vector_base<double, std::allocator<double>>::_Vector_impl_data" = type { ptr, ptr, ptr }
%"class.std::__shared_count" = type { ptr }
%class.t_state = type { i32, i32, i32, i32, i32, i32, %"struct.gmx::EnumerationArray", [3 x [3 x float]], [3 x [3 x float]], [3 x [3 x float]], [3 x [3 x float]], [3 x [3 x float]], [3 x [3 x float]], %"class.std::vector.0", %"class.std::vector.0", %"class.std::vector.0", %"class.std::vector.0", %"class.std::vector.0", double, float, float, %"class.gmx::PaddedVector", %"class.gmx::PaddedVector", %"class.gmx::PaddedVector", %class.ekinstate_t, %class.history_t, ptr, %"class.std::shared_ptr.136", i32, i32, %"class.std::vector.139", %"class.std::vector.0" }
%"struct.gmx::EnumerationArray" = type { [7 x float] }
%"class.gmx::PaddedVector" = type { %"class.std::vector.133", %"class.__gnu_cxx::__normal_iterator.135" }
%"class.std::vector.133" = type { %"struct.std::_Vector_base.134" }
%"struct.std::_Vector_base.134" = type { %"struct.std::_Vector_base<gmx::BasicVector<float>, gmx::Allocator<gmx::BasicVector<float>, gmx::HostAllocationPolicy>>::_Vector_impl" }
%"struct.std::_Vector_base<gmx::BasicVector<float>, gmx::Allocator<gmx::BasicVector<float>, gmx::HostAllocationPolicy>>::_Vector_impl" = type { %"class.gmx::Allocator", %"struct.std::_Vector_base<gmx::BasicVector<float>, gmx::Allocator<gmx::BasicVector<float>, gmx::HostAllocationPolicy>>::_Vector_impl_data" }
%"class.gmx::Allocator" = type { %"class.gmx::HostAllocationPolicy" }
%"class.gmx::HostAllocationPolicy" = type { i32 }
%"struct.std::_Vector_base<gmx::BasicVector<float>, gmx::Allocator<gmx::BasicVector<float>, gmx::HostAllocationPolicy>>::_Vector_impl_data" = type { ptr, ptr, ptr }
%"class.__gnu_cxx::__normal_iterator.135" = type { ptr }
%"class.std::shared_ptr.136" = type { %"class.std::__shared_ptr.137" }
%"class.std::__shared_ptr.137" = type { ptr, %"class.std::__shared_count" }
%"class.std::vector.139" = type { %"struct.std::_Vector_base.140" }
%"struct.std::_Vector_base.140" = type { %"struct.std::_Vector_base<int, std::allocator<int>>::_Vector_impl" }
%"struct.std::_Vector_base<int, std::allocator<int>>::_Vector_impl" = type { %"struct.std::_Vector_base<int, std::allocator<int>>::_Vector_impl_data" }
%"struct.std::_Vector_base<int, std::allocator<int>>::_Vector_impl_data" = type { ptr, ptr, ptr }
%struct.t_inputrec = type { i32, i32, i64, i32, i64, i32, i32, i32, i32, i32, i32, i32, i32, i32, i32, i32, double, double, i8, %"class.std::vector.181", float, float, float, i32, i32, i32, i32, float, float, i32, float, i32, i32, i8, i8, i32, float, i32, i32, i8, %struct.PressureCouplingOptions, [3 x float], [3 x float], i32, float, float, float, float, i32, i32, float, float, float, float, i8, i32, i32, float, float, i32, float, float, i32, %"class.std::unique_ptr.186", i8, %"class.std::unique_ptr.194", i8, %"class.std::unique_ptr.202", i32, float, i32, i8, i32, float, float, float, i32, float, float, i32, float, i32, i32, i32, i32, float, i32, i8, float, i64, i32, i32, float, [2 x i32], [2 x float], float, i8, %"class.std::unique_ptr.210", i8, %"class.std::unique_ptr.218", i8, %"class.std::unique_ptr.226", i32, ptr, i8, ptr, float, [3 x [3 x float]], i32, i32, i32, i32, float, float, float, float, %struct.t_grpopts, i8, i8, i8, i8, ptr, %"class.std::unique_ptr.234" }
%"class.std::vector.181" = type { %"struct.std::_Vector_base.182" }
%"struct.std::_Vector_base.182" = type { %"struct.std::_Vector_base<gmx::MtsLevel, std::allocator<gmx::MtsLevel>>::_Vector_impl" }
%"struct.std::_Vector_base<gmx::MtsLevel, std::allocator<gmx::MtsLevel>>::_Vector_impl" = type { %"struct.std::_Vector_base<gmx::MtsLevel, std::allocator<gmx::MtsLevel>>::_Vector_impl_data" }
%"struct.std::_Vector_base<gmx::MtsLevel, std::allocator<gmx::MtsLevel>>::_Vector_impl_data" = type { ptr, ptr, ptr }
%struct.PressureCouplingOptions = type { i32, i32, i32, float, [3 x [3 x float]], [3 x [3 x float]], i32 }
%"class.std::unique_ptr.186" = type { %"struct.std::__uniq_ptr_data.187" }
%"struct.std::__uniq_ptr_data.187" = type { %"class.std::__uniq_ptr_impl.188" }
%"class.std::__uniq_ptr_impl.188" = type { %"class.std::tuple.189" }
%"class.std::tuple.189" = type { %"struct.std::_Tuple_impl.190" }
%"struct.std::_Tuple_impl.190" = type { %"struct.std::_Head_base.193" }
%"struct.std::_Head_base.193" = type { ptr }
%"class.std::unique_ptr.194" = type { %"struct.std::__uniq_ptr_data.195" }
%"struct.std::__uniq_ptr_data.195" = type { %"class.std::__uniq_ptr_impl.196" }
%"class.std::__uniq_ptr_impl.196" = type { %"class.std::tuple.197" }
%"class.std::tuple.197" = type { %"struct.std::_Tuple_impl.198" }
%"struct.std::_Tuple_impl.198" = type { %"struct.std::_Head_base.201" }
%"struct.std::_Head_base.201" = type { ptr }
%"class.std::unique_ptr.202" = type { %"struct.std::__uniq_ptr_data.203" }
%"struct.std::__uniq_ptr_data.203" = type { %"class.std::__uniq_ptr_impl.204" }
%"class.std::__uniq_ptr_impl.204" = type { %"class.std::tuple.205" }
%"class.std::tuple.205" = type { %"struct.std::_Tuple_impl.206" }
%"struct.std::_Tuple_impl.206" = type { %"struct.std::_Head_base.209" }
%"struct.std::_Head_base.209" = type { ptr }
%"class.std::unique_ptr.210" = type { %"struct.std::__uniq_ptr_data.211" }
%"struct.std::__uniq_ptr_data.211" = type { %"class.std::__uniq_ptr_impl.212" }
%"class.std::__uniq_ptr_impl.212" = type { %"class.std::tuple.213" }
%"class.std::tuple.213" = type { %"struct.std::_Tuple_impl.214" }
%"struct.std::_Tuple_impl.214" = type { %"struct.std::_Head_base.217" }
%"struct.std::_Head_base.217" = type { ptr }
%"class.std::unique_ptr.218" = type { %"struct.std::__uniq_ptr_data.219" }
%"struct.std::__uniq_ptr_data.219" = type { %"class.std::__uniq_ptr_impl.220" }
%"class.std::__uniq_ptr_impl.220" = type { %"class.std::tuple.221" }
%"class.std::tuple.221" = type { %"struct.std::_Tuple_impl.222" }
%"struct.std::_Tuple_impl.222" = type { %"struct.std::_Head_base.225" }
%"struct.std::_Head_base.225" = type { ptr }
%"class.std::unique_ptr.226" = type { %"struct.std::__uniq_ptr_data.227" }
%"struct.std::__uniq_ptr_data.227" = type { %"class.std::__uniq_ptr_impl.228" }
%"class.std::__uniq_ptr_impl.228" = type { %"class.std::tuple.229" }
%"class.std::tuple.229" = type { %"struct.std::_Tuple_impl.230" }
%"struct.std::_Tuple_impl.230" = type { %"struct.std::_Head_base.233" }
%"struct.std::_Head_base.233" = type { ptr }
%struct.t_grpopts = type <{ i32, i32, i32, i32, i32, [4 x i8], ptr, ptr, ptr, ptr, ptr, ptr, ptr, ptr, ptr, ptr, i32, [4 x i8] }>
%"class.std::unique_ptr.234" = type { %"struct.std::__uniq_ptr_data.235" }
%"struct.std::__uniq_ptr_data.235" = type { %"class.std::__uniq_ptr_impl.236" }
%"class.std::__uniq_ptr_impl.236" = type { %"class.std::tuple.237" }
%"class.std::tuple.237" = type { %"struct.std::_Tuple_impl.238" }
%"struct.std::_Tuple_impl.238" = type { %"struct.std::_Head_base.241" }
%"struct.std::_Head_base.241" = type { ptr }

; Function Attrs: mustprogress nounwind uwtable
define internal void @_ZL9clear_matPA3_f(ptr noundef %0) #0 {
  %2 = alloca ptr, align 8
  %3 = alloca float, align 4
  store ptr %0, ptr %2, align 8
  store float 0.000000e+00, ptr %3, align 4
  %4 = load ptr, ptr %2, align 8
  %5 = getelementptr inbounds [3 x float], ptr %4, i64 0
  %6 = getelementptr inbounds [3 x float], ptr %5, i64 0, i64 2
  store float 0.000000e+00, ptr %6, align 4
  %7 = load ptr, ptr %2, align 8
  %8 = getelementptr inbounds [3 x float], ptr %7, i64 0
  %9 = getelementptr inbounds [3 x float], ptr %8, i64 0, i64 1
  store float 0.000000e+00, ptr %9, align 4
  %10 = load ptr, ptr %2, align 8
  %11 = getelementptr inbounds [3 x float], ptr %10, i64 0
  %12 = getelementptr inbounds [3 x float], ptr %11, i64 0, i64 0
  store float 0.000000e+00, ptr %12, align 4
  %13 = load ptr, ptr %2, align 8
  %14 = getelementptr inbounds [3 x float], ptr %13, i64 1
  %15 = getelementptr inbounds [3 x float], ptr %14, i64 0, i64 2
  store float 0.000000e+00, ptr %15, align 4
  %16 = load ptr, ptr %2, align 8
  %17 = getelementptr inbounds [3 x float], ptr %16, i64 1
  %18 = getelementptr inbounds [3 x float], ptr %17, i64 0, i64 1
  store float 0.000000e+00, ptr %18, align 4
  %19 = load ptr, ptr %2, align 8
  %20 = getelementptr inbounds [3 x float], ptr %19, i64 1
  %21 = getelementptr inbounds [3 x float], ptr %20, i64 0, i64 0
  store float 0.000000e+00, ptr %21, align 4
  %22 = load ptr, ptr %2, align 8
  %23 = getelementptr inbounds [3 x float], ptr %22, i64 2
  %24 = getelementptr inbounds [3 x float], ptr %23, i64 0, i64 2
  store float 0.000000e+00, ptr %24, align 4
  %25 = load ptr, ptr %2, align 8
  %26 = getelementptr inbounds [3 x float], ptr %25, i64 2
  %27 = getelementptr inbounds [3 x float], ptr %26, i64 0, i64 1
  store float 0.000000e+00, ptr %27, align 4
  %28 = load ptr, ptr %2, align 8
  %29 = getelementptr inbounds [3 x float], ptr %28, i64 2
  %30 = getelementptr inbounds [3 x float], ptr %29, i64 0, i64 0
  store float 0.000000e+00, ptr %30, align 4
  ret void
}

; Function Attrs: mustprogress uwtable
define void @_Z11set_box_relPK10t_inputrecP7t_state(ptr noundef %0, ptr noundef %1) #1 {
  %3 = alloca ptr, align 8
  %4 = alloca ptr, align 8
  %5 = alloca i32, align 4
  store ptr %0, ptr %3, align 8
  store ptr %1, ptr %4, align 8
  %6 = load ptr, ptr %4, align 8
  %7 = getelementptr inbounds %class.t_state, ptr %6, i32 0, i32 7
  %8 = getelementptr inbounds [3 x [3 x float]], ptr %7, i64 0, i64 0
  %9 = call noundef zeroext i1 @_Z11correct_boxP8_IO_FILElPA3_f(ptr noundef null, i64 noundef 0, ptr noundef %8)
  %10 = load ptr, ptr %4, align 8
  %11 = getelementptr inbounds %class.t_state, ptr %10, i32 0, i32 8
  %12 = getelementptr inbounds [3 x [3 x float]], ptr %11, i64 0, i64 0
  call void @_ZL9clear_matPA3_f(ptr noundef %12)
  %13 = load ptr, ptr %3, align 8
  %14 = getelementptr inbounds %struct.t_inputrec, ptr %13, i32 0, i32 40
  %15 = load ptr, ptr %3, align 8
  %16 = getelementptr inbounds %struct.t_inputrec, ptr %15, i32 0, i32 107
  %17 = getelementptr inbounds [3 x [3 x float]], ptr %16, i64 0, i64 0
  %18 = call noundef zeroext i1 @_Z22shouldPreserveBoxShapeRK23PressureCouplingOptionsPA3_Kf(ptr noundef nonnull align 4 dereferenceable(92) %14, ptr noundef %17)
  br i1 %18, label %19, label %36

19:                                               ; preds = %2
  %20 = load ptr, ptr %3, align 8
  %21 = getelementptr inbounds %struct.t_inputrec, ptr %20, i32 0, i32 40
  %22 = getelementptr inbounds %struct.PressureCouplingOptions, ptr %21, i32 0, i32 1
  %23 = load i32, ptr %22, align 4
  %24 = icmp eq i32 %23, 1
  %25 = select i1 %24, i32 2, i32 3
  store i32 %25, ptr %5, align 4
  %26 = load i32, ptr %5, align 4
  %27 = load ptr, ptr %3, align 8
  %28 = getelementptr inbounds %struct.t_inputrec, ptr %27, i32 0, i32 107
  %29 = getelementptr inbounds [3 x [3 x float]], ptr %28, i64 0, i64 0
  %30 = load ptr, ptr %4, align 8
  %31 = getelementptr inbounds %class.t_state, ptr %30, i32 0, i32 8
  %32 = getelementptr inbounds [3 x [3 x float]], ptr %31, i64 0, i64 0
  %33 = load ptr, ptr %4, align 8
  %34 = getelementptr inbounds %class.t_state, ptr %33, i32 0, i32 7
  %35 = getelementptr inbounds [3 x [3 x float]], ptr %34, i64 0, i64 0
  call void @_Z10do_box_reliPA3_KfPA3_fS3_b(i32 noundef %26, ptr noundef %29, ptr noundef %32, ptr noundef %35, i1 noundef zeroext true)
  br label %36

36:                                               ; preds = %19, %2
  ret void
}