; Function Attrs: mustprogress uwtable
define void @_Z11set_box_relPK10t_inputrecP7t_state(ptr noundef %0, ptr noundef %1) local_unnamed_addr #4 {
  %3 = getelementptr inbounds i8, ptr %1, i64 52
  %4 = tail call noundef zeroext i1 @_Z11correct_boxP8_IO_FILElPA3_f(ptr noundef null, i64 noundef 0, ptr noundef nonnull %3)
  %5 = getelementptr inbounds i8, ptr %1, i64 88
  tail call void @llvm.memset.p0.i64(ptr noundef nonnull align 4 dereferenceable(36) %5, i8 0, i64 36, i1 false)
  %6 = getelementptr inbounds i8, ptr %0, i64 204
  %7 = getelementptr inbounds i8, ptr %0, i64 652
  %8 = tail call noundef zeroext i1 @_Z22shouldPreserveBoxShapeRK23PressureCouplingOptionsPA3_Kf(ptr noundef nonnull align 4 dereferenceable(92) %6, ptr noundef nonnull %7)
  br i1 %8, label %9, label %14

9:                                                ; preds = %2
  %10 = getelementptr inbounds i8, ptr %0, i64 208
  %11 = load i32, ptr %10, align 4
  %12 = icmp eq i32 %11, 1
  %13 = select i1 %12, i32 2, i32 3
  tail call void @_Z10do_box_reliPA3_KfPA3_fS3_b(i32 noundef %13, ptr noundef nonnull %7, ptr noundef nonnull %5, ptr noundef nonnull %3, i1 noundef zeroext true)
  br label %14

14:                                               ; preds = %9, %2
  ret void
}